ARM GAS  C:\Users\natha\AppData\Local\Temp\ccH2yPdW.s 			page 1


   1              		.cpu cortex-m4
   2              		.arch armv7e-m
   3              		.fpu fpv4-sp-d16
   4              		.eabi_attribute 27, 1
   5              		.eabi_attribute 28, 1
   6              		.eabi_attribute 20, 1
   7              		.eabi_attribute 21, 1
   8              		.eabi_attribute 23, 3
   9              		.eabi_attribute 24, 1
  10              		.eabi_attribute 25, 1
  11              		.eabi_attribute 26, 1
  12              		.eabi_attribute 30, 1
  13              		.eabi_attribute 34, 1
  14              		.eabi_attribute 18, 4
  15              		.file	"logging.c"
  16              		.text
  17              	.Ltext0:
  18              		.cfi_sections	.debug_frame
  19              		.file 1 "Drivers/Logging/Src/logging.c"
  20              		.section	.rodata.logging.str1.4,"aMS",%progbits,1
  21              		.align	2
  22              	.LC0:
  23 0000 44697374 		.ascii	"Distance: %u.%u in, Up Tilt Switch: %d, Down Tilt S"
  23      616E6365 
  23      3A202575 
  23      2E257520 
  23      696E2C20 
  24 0033 77697463 		.ascii	"witch: %d, PWM ARR: %d\015\012\000"
  24      683A2025 
  24      642C2050 
  24      574D2041 
  24      52523A20 
  25              		.section	.text.logging,"ax",%progbits
  26              		.align	1
  27              		.global	logging
  28              		.syntax unified
  29              		.thumb
  30              		.thumb_func
  32              	logging:
  33              	.LVL0:
  34              	.LFB219:
   1:Drivers/Logging/Src/logging.c **** /**
   2:Drivers/Logging/Src/logging.c ****   ******************************************************************************
   3:Drivers/Logging/Src/logging.c ****   * @file           : logging.c
   4:Drivers/Logging/Src/logging.c ****   * @brief          : functions for logging
   5:Drivers/Logging/Src/logging.c ****   ******************************************************************************
   6:Drivers/Logging/Src/logging.c ****   */
   7:Drivers/Logging/Src/logging.c **** 
   8:Drivers/Logging/Src/logging.c ****  #include "logging.h"
   9:Drivers/Logging/Src/logging.c ****  #include <stdio.h>
  10:Drivers/Logging/Src/logging.c ****  #include <string.h>
  11:Drivers/Logging/Src/logging.c **** 
  12:Drivers/Logging/Src/logging.c ****  void logging(UART_HandleTypeDef *huart, float distance, switches_instance_t *switchesInstance, mot
  35              		.loc 1 12 130 view -0
  36              		.cfi_startproc
  37              		@ args = 0, pretend = 0, frame = 104
  38              		@ frame_needed = 0, uses_anonymous_args = 0
ARM GAS  C:\Users\natha\AppData\Local\Temp\ccH2yPdW.s 			page 2


  39              		.loc 1 12 130 is_stmt 0 view .LVU1
  40 0000 10B5     		push	{r4, lr}
  41              	.LCFI0:
  42              		.cfi_def_cfa_offset 8
  43              		.cfi_offset 4, -8
  44              		.cfi_offset 14, -4
  45 0002 9EB0     		sub	sp, sp, #120
  46              	.LCFI1:
  47              		.cfi_def_cfa_offset 128
  48 0004 0446     		mov	r4, r0
  13:Drivers/Logging/Src/logging.c ****     uint8_t buf[100];
  49              		.loc 1 13 5 is_stmt 1 view .LVU2
  14:Drivers/Logging/Src/logging.c **** 
  15:Drivers/Logging/Src/logging.c ****     distance *= 100;
  50              		.loc 1 15 5 view .LVU3
  51              		.loc 1 15 14 is_stmt 0 view .LVU4
  52 0006 DFED137A 		vldr.32	s15, .L3
  53 000a 20EE270A 		vmul.f32	s0, s0, s15
  54              	.LVL1:
  16:Drivers/Logging/Src/logging.c ****     sprintf((char*)buf, 
  55              		.loc 1 16 5 is_stmt 1 view .LVU5
  17:Drivers/Logging/Src/logging.c ****             "Distance: %u.%u in, Up Tilt Switch: %d, Down Tilt Switch: %d, PWM ARR: %d\r\n",
  18:Drivers/Logging/Src/logging.c ****             ((unsigned int)distance / 100),
  56              		.loc 1 18 14 is_stmt 0 view .LVU6
  57 000e FCEEC07A 		vcvt.u32.f32	s15, s0
  58 0012 17EE903A 		vmov	r3, s15	@ int
  19:Drivers/Logging/Src/logging.c ****             ((unsigned int)distance % 100), 
  20:Drivers/Logging/Src/logging.c ****             switchesInstance->upTiltSwitch->switchStatus,
  59              		.loc 1 20 29 view .LVU7
  60 0016 8868     		ldr	r0, [r1, #8]
  61              	.LVL2:
  62              		.loc 1 20 43 view .LVU8
  63 0018 007A     		ldrb	r0, [r0, #8]	@ zero_extendqisi2
  21:Drivers/Logging/Src/logging.c ****             switchesInstance->downTiltSwitch->switchStatus, 
  64              		.loc 1 21 29 view .LVU9
  65 001a C968     		ldr	r1, [r1, #12]
  66              	.LVL3:
  67              		.loc 1 21 45 view .LVU10
  68 001c 097A     		ldrb	r1, [r1, #8]	@ zero_extendqisi2
  22:Drivers/Logging/Src/logging.c ****             (int)motorInstance->autoReloadRegister);
  69              		.loc 1 22 31 view .LVU11
  70 001e D269     		ldr	r2, [r2, #28]
  71              	.LVL4:
  72              		.loc 1 22 31 view .LVU12
  73 0020 0292     		str	r2, [sp, #8]
  16:Drivers/Logging/Src/logging.c ****             "Distance: %u.%u in, Up Tilt Switch: %d, Down Tilt Switch: %d, PWM ARR: %d\r\n",
  74              		.loc 1 16 5 view .LVU13
  75 0022 0D4A     		ldr	r2, .L3+4
  76 0024 A2FB03C2 		umull	ip, r2, r2, r3
  77 0028 5209     		lsrs	r2, r2, #5
  78 002a 0191     		str	r1, [sp, #4]
  79 002c 0090     		str	r0, [sp]
  80 002e 6421     		movs	r1, #100
  81 0030 01FB1233 		mls	r3, r1, r2, r3
  82 0034 0949     		ldr	r1, .L3+8
  83 0036 05A8     		add	r0, sp, #20
  84 0038 FFF7FEFF 		bl	sprintf
ARM GAS  C:\Users\natha\AppData\Local\Temp\ccH2yPdW.s 			page 3


  85              	.LVL5:
  23:Drivers/Logging/Src/logging.c **** 
  24:Drivers/Logging/Src/logging.c ****     HAL_UART_Transmit(huart, buf, strlen((char*)buf), HAL_MAX_DELAY);
  86              		.loc 1 24 5 is_stmt 1 view .LVU14
  87              		.loc 1 24 35 is_stmt 0 view .LVU15
  88 003c 05A8     		add	r0, sp, #20
  89 003e FFF7FEFF 		bl	strlen
  90              	.LVL6:
  91              		.loc 1 24 5 view .LVU16
  92 0042 4FF0FF33 		mov	r3, #-1
  93 0046 82B2     		uxth	r2, r0
  94 0048 05A9     		add	r1, sp, #20
  95 004a 2046     		mov	r0, r4
  96 004c FFF7FEFF 		bl	HAL_UART_Transmit
  97              	.LVL7:
  25:Drivers/Logging/Src/logging.c ****  }...
  98              		.loc 1 25 2 view .LVU17
  99 0050 1EB0     		add	sp, sp, #120
 100              	.LCFI2:
 101              		.cfi_def_cfa_offset 8
 102              		@ sp needed
 103 0052 10BD     		pop	{r4, pc}
 104              	.LVL8:
 105              	.L4:
 106              		.loc 1 25 2 view .LVU18
 107              		.align	2
 108              	.L3:
 109 0054 0000C842 		.word	1120403456
 110 0058 1F85EB51 		.word	1374389535
 111 005c 00000000 		.word	.LC0
 112              		.cfi_endproc
 113              	.LFE219:
 115              		.text
 116              	.Letext0:
 117              		.file 2 "c:\\users\\natha\\devtools\\arm-gnu-toolchain-12.2.mpacbti-bet1-mingw-w64-i686-arm-none-e
 118              		.file 3 "c:\\users\\natha\\devtools\\arm-gnu-toolchain-12.2.mpacbti-bet1-mingw-w64-i686-arm-none-e
 119              		.file 4 "Drivers/CMSIS/Device/ST/STM32F4xx/Include/stm32f401xe.h"
 120              		.file 5 "c:\\users\\natha\\devtools\\arm-gnu-toolchain-12.2.mpacbti-bet1-mingw-w64-i686-arm-none-e
 121              		.file 6 "Drivers/STM32F4xx_HAL_Driver/Inc/stm32f4xx_hal_def.h"
 122              		.file 7 "Drivers/STM32F4xx_HAL_Driver/Inc/stm32f4xx_hal_dma.h"
 123              		.file 8 "Drivers/STM32F4xx_HAL_Driver/Inc/stm32f4xx_hal_tim.h"
 124              		.file 9 "Drivers/STM32F4xx_HAL_Driver/Inc/stm32f4xx_hal_uart.h"
 125              		.file 10 "Drivers/Motor_Control/Inc/motor_functions.h"
 126              		.file 11 "Drivers/Switches/Inc/switches.h"
 127              		.file 12 "c:\\users\\natha\\devtools\\arm-gnu-toolchain-12.2.mpacbti-bet1-mingw-w64-i686-arm-none-
 128              		.file 13 "c:\\users\\natha\\devtools\\arm-gnu-toolchain-12.2.mpacbti-bet1-mingw-w64-i686-arm-none-
ARM GAS  C:\Users\natha\AppData\Local\Temp\ccH2yPdW.s 			page 4

