ARM GAS  C:\Users\natha\AppData\Local\Temp\ccyfa2Ig.s 			page 1


   1              		.cpu cortex-m4
   2              		.arch armv7e-m
   3              		.fpu fpv4-sp-d16
   4              		.eabi_attribute 27, 1
   5              		.eabi_attribute 28, 1
   6              		.eabi_attribute 20, 1
   7              		.eabi_attribute 21, 1
   8              		.eabi_attribute 23, 3
   9              		.eabi_attribute 24, 1
  10              		.eabi_attribute 25, 1
  11              		.eabi_attribute 26, 1
  12              		.eabi_attribute 30, 1
  13              		.eabi_attribute 34, 1
  14              		.eabi_attribute 18, 4
  15              		.file	"main.c"
  16              		.text
  17              	.Ltext0:
  18              		.cfi_sections	.debug_frame
  19              		.file 1 "Core/Src/main.c"
  20              		.section	.text.MX_GPIO_Init,"ax",%progbits
  21              		.align	1
  22              		.syntax unified
  23              		.thumb
  24              		.thumb_func
  26              	MX_GPIO_Init:
  27              	.LFB134:
   1:Core/Src/main.c **** /* USER CODE BEGIN Header */
   2:Core/Src/main.c **** /**
   3:Core/Src/main.c ****   ******************************************************************************
   4:Core/Src/main.c ****   * @file           : main.c
   5:Core/Src/main.c ****   * @brief          : Main program body
   6:Core/Src/main.c ****   ******************************************************************************
   7:Core/Src/main.c ****   * @attention
   8:Core/Src/main.c ****   *
   9:Core/Src/main.c ****   * Copyright (c) 2023 STMicroelectronics.
  10:Core/Src/main.c ****   * All rights reserved.
  11:Core/Src/main.c ****   *
  12:Core/Src/main.c ****   * This software is licensed under terms that can be found in the LICENSE file
  13:Core/Src/main.c ****   * in the root directory of this software component.
  14:Core/Src/main.c ****   * If no LICENSE file comes with this software, it is provided AS-IS.
  15:Core/Src/main.c ****   *
  16:Core/Src/main.c ****   ******************************************************************************
  17:Core/Src/main.c ****   */
  18:Core/Src/main.c **** /* USER CODE END Header */
  19:Core/Src/main.c **** /* Includes ------------------------------------------------------------------*/
  20:Core/Src/main.c **** #include "main.h"
  21:Core/Src/main.c **** 
  22:Core/Src/main.c **** /* Private includes ----------------------------------------------------------*/
  23:Core/Src/main.c **** /* USER CODE BEGIN Includes */
  24:Core/Src/main.c **** 
  25:Core/Src/main.c **** /* USER CODE END Includes */
  26:Core/Src/main.c **** 
  27:Core/Src/main.c **** /* Private typedef -----------------------------------------------------------*/
  28:Core/Src/main.c **** /* USER CODE BEGIN PTD */
  29:Core/Src/main.c **** 
  30:Core/Src/main.c **** /* USER CODE END PTD */
  31:Core/Src/main.c **** 
ARM GAS  C:\Users\natha\AppData\Local\Temp\ccyfa2Ig.s 			page 2


  32:Core/Src/main.c **** /* Private define ------------------------------------------------------------*/
  33:Core/Src/main.c **** /* USER CODE BEGIN PD */
  34:Core/Src/main.c **** /* USER CODE END PD */
  35:Core/Src/main.c **** 
  36:Core/Src/main.c **** /* Private macro -------------------------------------------------------------*/
  37:Core/Src/main.c **** /* USER CODE BEGIN PM */
  38:Core/Src/main.c **** 
  39:Core/Src/main.c **** /* USER CODE END PM */
  40:Core/Src/main.c **** 
  41:Core/Src/main.c **** /* Private variables ---------------------------------------------------------*/
  42:Core/Src/main.c **** TIM_HandleTypeDef htim3;
  43:Core/Src/main.c **** 
  44:Core/Src/main.c **** UART_HandleTypeDef huart2;
  45:Core/Src/main.c **** 
  46:Core/Src/main.c **** /* USER CODE BEGIN PV */
  47:Core/Src/main.c **** 
  48:Core/Src/main.c **** /* USER CODE END PV */
  49:Core/Src/main.c **** 
  50:Core/Src/main.c **** /* Private function prototypes -----------------------------------------------*/
  51:Core/Src/main.c **** void SystemClock_Config(void);
  52:Core/Src/main.c **** static void MX_GPIO_Init(void);
  53:Core/Src/main.c **** static void MX_USART2_UART_Init(void);
  54:Core/Src/main.c **** static void MX_TIM3_Init(void);
  55:Core/Src/main.c **** /* USER CODE BEGIN PFP */
  56:Core/Src/main.c **** 
  57:Core/Src/main.c **** /* USER CODE END PFP */
  58:Core/Src/main.c **** 
  59:Core/Src/main.c **** /* Private user code ---------------------------------------------------------*/
  60:Core/Src/main.c **** /* USER CODE BEGIN 0 */
  61:Core/Src/main.c **** 
  62:Core/Src/main.c **** /* USER CODE END 0 */
  63:Core/Src/main.c **** 
  64:Core/Src/main.c **** /**
  65:Core/Src/main.c ****   * @brief  The application entry point.
  66:Core/Src/main.c ****   * @retval int
  67:Core/Src/main.c ****   */
  68:Core/Src/main.c **** int main(void)
  69:Core/Src/main.c **** {
  70:Core/Src/main.c ****   /* USER CODE BEGIN 1 */
  71:Core/Src/main.c **** 
  72:Core/Src/main.c ****   /* USER CODE END 1 */
  73:Core/Src/main.c **** 
  74:Core/Src/main.c ****   /* MCU Configuration--------------------------------------------------------*/
  75:Core/Src/main.c **** 
  76:Core/Src/main.c ****   /* Reset of all peripherals, Initializes the Flash interface and the Systick. */
  77:Core/Src/main.c ****   HAL_Init();
  78:Core/Src/main.c **** 
  79:Core/Src/main.c ****   /* USER CODE BEGIN Init */
  80:Core/Src/main.c **** 
  81:Core/Src/main.c ****   /* USER CODE END Init */
  82:Core/Src/main.c **** 
  83:Core/Src/main.c ****   /* Configure the system clock */
  84:Core/Src/main.c ****   SystemClock_Config();
  85:Core/Src/main.c **** 
  86:Core/Src/main.c ****   /* USER CODE BEGIN SysInit */
  87:Core/Src/main.c **** 
  88:Core/Src/main.c ****   /* USER CODE END SysInit */
ARM GAS  C:\Users\natha\AppData\Local\Temp\ccyfa2Ig.s 			page 3


  89:Core/Src/main.c **** 
  90:Core/Src/main.c ****   /* Initialize all configured peripherals */
  91:Core/Src/main.c ****   MX_GPIO_Init();
  92:Core/Src/main.c ****   MX_USART2_UART_Init();
  93:Core/Src/main.c ****   MX_TIM3_Init();
  94:Core/Src/main.c ****   /* USER CODE BEGIN 2 */
  95:Core/Src/main.c **** 
  96:Core/Src/main.c ****   /* USER CODE END 2 */
  97:Core/Src/main.c **** 
  98:Core/Src/main.c ****   /* Infinite loop */
  99:Core/Src/main.c ****   /* USER CODE BEGIN WHILE */
 100:Core/Src/main.c ****   while (1)
 101:Core/Src/main.c ****   {
 102:Core/Src/main.c ****     /* USER CODE END WHILE */
 103:Core/Src/main.c **** 
 104:Core/Src/main.c ****     /* USER CODE BEGIN 3 */
 105:Core/Src/main.c ****   }
 106:Core/Src/main.c ****   /* USER CODE END 3 */
 107:Core/Src/main.c **** }
 108:Core/Src/main.c **** 
 109:Core/Src/main.c **** /**
 110:Core/Src/main.c ****   * @brief System Clock Configuration
 111:Core/Src/main.c ****   * @retval None
 112:Core/Src/main.c ****   */
 113:Core/Src/main.c **** void SystemClock_Config(void)
 114:Core/Src/main.c **** {
 115:Core/Src/main.c ****   RCC_OscInitTypeDef RCC_OscInitStruct = {0};
 116:Core/Src/main.c ****   RCC_ClkInitTypeDef RCC_ClkInitStruct = {0};
 117:Core/Src/main.c **** 
 118:Core/Src/main.c ****   /** Configure the main internal regulator output voltage
 119:Core/Src/main.c ****   */
 120:Core/Src/main.c ****   __HAL_RCC_PWR_CLK_ENABLE();
 121:Core/Src/main.c ****   __HAL_PWR_VOLTAGESCALING_CONFIG(PWR_REGULATOR_VOLTAGE_SCALE2);
 122:Core/Src/main.c **** 
 123:Core/Src/main.c ****   /** Initializes the RCC Oscillators according to the specified parameters
 124:Core/Src/main.c ****   * in the RCC_OscInitTypeDef structure.
 125:Core/Src/main.c ****   */
 126:Core/Src/main.c ****   RCC_OscInitStruct.OscillatorType = RCC_OSCILLATORTYPE_HSI;
 127:Core/Src/main.c ****   RCC_OscInitStruct.HSIState = RCC_HSI_ON;
 128:Core/Src/main.c ****   RCC_OscInitStruct.HSICalibrationValue = RCC_HSICALIBRATION_DEFAULT;
 129:Core/Src/main.c ****   RCC_OscInitStruct.PLL.PLLState = RCC_PLL_ON;
 130:Core/Src/main.c ****   RCC_OscInitStruct.PLL.PLLSource = RCC_PLLSOURCE_HSI;
 131:Core/Src/main.c ****   RCC_OscInitStruct.PLL.PLLM = 16;
 132:Core/Src/main.c ****   RCC_OscInitStruct.PLL.PLLN = 336;
 133:Core/Src/main.c ****   RCC_OscInitStruct.PLL.PLLP = RCC_PLLP_DIV4;
 134:Core/Src/main.c ****   RCC_OscInitStruct.PLL.PLLQ = 7;
 135:Core/Src/main.c ****   if (HAL_RCC_OscConfig(&RCC_OscInitStruct) != HAL_OK)
 136:Core/Src/main.c ****   {
 137:Core/Src/main.c ****     Error_Handler();
 138:Core/Src/main.c ****   }
 139:Core/Src/main.c **** 
 140:Core/Src/main.c ****   /** Initializes the CPU, AHB and APB buses clocks
 141:Core/Src/main.c ****   */
 142:Core/Src/main.c ****   RCC_ClkInitStruct.ClockType = RCC_CLOCKTYPE_HCLK|RCC_CLOCKTYPE_SYSCLK
 143:Core/Src/main.c ****                               |RCC_CLOCKTYPE_PCLK1|RCC_CLOCKTYPE_PCLK2;
 144:Core/Src/main.c ****   RCC_ClkInitStruct.SYSCLKSource = RCC_SYSCLKSOURCE_PLLCLK;
 145:Core/Src/main.c ****   RCC_ClkInitStruct.AHBCLKDivider = RCC_SYSCLK_DIV1;
ARM GAS  C:\Users\natha\AppData\Local\Temp\ccyfa2Ig.s 			page 4


 146:Core/Src/main.c ****   RCC_ClkInitStruct.APB1CLKDivider = RCC_HCLK_DIV2;
 147:Core/Src/main.c ****   RCC_ClkInitStruct.APB2CLKDivider = RCC_HCLK_DIV1;
 148:Core/Src/main.c **** 
 149:Core/Src/main.c ****   if (HAL_RCC_ClockConfig(&RCC_ClkInitStruct, FLASH_LATENCY_2) != HAL_OK)
 150:Core/Src/main.c ****   {
 151:Core/Src/main.c ****     Error_Handler();
 152:Core/Src/main.c ****   }
 153:Core/Src/main.c **** }
 154:Core/Src/main.c **** 
 155:Core/Src/main.c **** /**
 156:Core/Src/main.c ****   * @brief TIM3 Initialization Function
 157:Core/Src/main.c ****   * @param None
 158:Core/Src/main.c ****   * @retval None
 159:Core/Src/main.c ****   */
 160:Core/Src/main.c **** static void MX_TIM3_Init(void)
 161:Core/Src/main.c **** {
 162:Core/Src/main.c **** 
 163:Core/Src/main.c ****   /* USER CODE BEGIN TIM3_Init 0 */
 164:Core/Src/main.c **** 
 165:Core/Src/main.c ****   /* USER CODE END TIM3_Init 0 */
 166:Core/Src/main.c **** 
 167:Core/Src/main.c ****   TIM_ClockConfigTypeDef sClockSourceConfig = {0};
 168:Core/Src/main.c ****   TIM_MasterConfigTypeDef sMasterConfig = {0};
 169:Core/Src/main.c ****   TIM_OC_InitTypeDef sConfigOC = {0};
 170:Core/Src/main.c **** 
 171:Core/Src/main.c ****   /* USER CODE BEGIN TIM3_Init 1 */
 172:Core/Src/main.c **** 
 173:Core/Src/main.c ****   /* USER CODE END TIM3_Init 1 */
 174:Core/Src/main.c ****   htim3.Instance = TIM3;
 175:Core/Src/main.c ****   htim3.Init.Prescaler = 0;
 176:Core/Src/main.c ****   htim3.Init.CounterMode = TIM_COUNTERMODE_UP;
 177:Core/Src/main.c ****   htim3.Init.Period = 0;
 178:Core/Src/main.c ****   htim3.Init.ClockDivision = TIM_CLOCKDIVISION_DIV1;
 179:Core/Src/main.c ****   htim3.Init.AutoReloadPreload = TIM_AUTORELOAD_PRELOAD_DISABLE;
 180:Core/Src/main.c ****   if (HAL_TIM_Base_Init(&htim3) != HAL_OK)
 181:Core/Src/main.c ****   {
 182:Core/Src/main.c ****     Error_Handler();
 183:Core/Src/main.c ****   }
 184:Core/Src/main.c ****   sClockSourceConfig.ClockSource = TIM_CLOCKSOURCE_INTERNAL;
 185:Core/Src/main.c ****   if (HAL_TIM_ConfigClockSource(&htim3, &sClockSourceConfig) != HAL_OK)
 186:Core/Src/main.c ****   {
 187:Core/Src/main.c ****     Error_Handler();
 188:Core/Src/main.c ****   }
 189:Core/Src/main.c ****   if (HAL_TIM_PWM_Init(&htim3) != HAL_OK)
 190:Core/Src/main.c ****   {
 191:Core/Src/main.c ****     Error_Handler();
 192:Core/Src/main.c ****   }
 193:Core/Src/main.c ****   sMasterConfig.MasterOutputTrigger = TIM_TRGO_RESET;
 194:Core/Src/main.c ****   sMasterConfig.MasterSlaveMode = TIM_MASTERSLAVEMODE_DISABLE;
 195:Core/Src/main.c ****   if (HAL_TIMEx_MasterConfigSynchronization(&htim3, &sMasterConfig) != HAL_OK)
 196:Core/Src/main.c ****   {
 197:Core/Src/main.c ****     Error_Handler();
 198:Core/Src/main.c ****   }
 199:Core/Src/main.c ****   sConfigOC.OCMode = TIM_OCMODE_PWM1;
 200:Core/Src/main.c ****   sConfigOC.Pulse = 0;
 201:Core/Src/main.c ****   sConfigOC.OCPolarity = TIM_OCPOLARITY_HIGH;
 202:Core/Src/main.c ****   sConfigOC.OCFastMode = TIM_OCFAST_DISABLE;
ARM GAS  C:\Users\natha\AppData\Local\Temp\ccyfa2Ig.s 			page 5


 203:Core/Src/main.c ****   if (HAL_TIM_PWM_ConfigChannel(&htim3, &sConfigOC, TIM_CHANNEL_1) != HAL_OK)
 204:Core/Src/main.c ****   {
 205:Core/Src/main.c ****     Error_Handler();
 206:Core/Src/main.c ****   }
 207:Core/Src/main.c ****   if (HAL_TIM_PWM_ConfigChannel(&htim3, &sConfigOC, TIM_CHANNEL_2) != HAL_OK)
 208:Core/Src/main.c ****   {
 209:Core/Src/main.c ****     Error_Handler();
 210:Core/Src/main.c ****   }
 211:Core/Src/main.c ****   /* USER CODE BEGIN TIM3_Init 2 */
 212:Core/Src/main.c **** 
 213:Core/Src/main.c ****   /* USER CODE END TIM3_Init 2 */
 214:Core/Src/main.c ****   HAL_TIM_MspPostInit(&htim3);
 215:Core/Src/main.c **** 
 216:Core/Src/main.c **** }
 217:Core/Src/main.c **** 
 218:Core/Src/main.c **** /**
 219:Core/Src/main.c ****   * @brief USART2 Initialization Function
 220:Core/Src/main.c ****   * @param None
 221:Core/Src/main.c ****   * @retval None
 222:Core/Src/main.c ****   */
 223:Core/Src/main.c **** static void MX_USART2_UART_Init(void)
 224:Core/Src/main.c **** {
 225:Core/Src/main.c **** 
 226:Core/Src/main.c ****   /* USER CODE BEGIN USART2_Init 0 */
 227:Core/Src/main.c **** 
 228:Core/Src/main.c ****   /* USER CODE END USART2_Init 0 */
 229:Core/Src/main.c **** 
 230:Core/Src/main.c ****   /* USER CODE BEGIN USART2_Init 1 */
 231:Core/Src/main.c **** 
 232:Core/Src/main.c ****   /* USER CODE END USART2_Init 1 */
 233:Core/Src/main.c ****   huart2.Instance = USART2;
 234:Core/Src/main.c ****   huart2.Init.BaudRate = 115200;
 235:Core/Src/main.c ****   huart2.Init.WordLength = UART_WORDLENGTH_8B;
 236:Core/Src/main.c ****   huart2.Init.StopBits = UART_STOPBITS_1;
 237:Core/Src/main.c ****   huart2.Init.Parity = UART_PARITY_NONE;
 238:Core/Src/main.c ****   huart2.Init.Mode = UART_MODE_TX_RX;
 239:Core/Src/main.c ****   huart2.Init.HwFlowCtl = UART_HWCONTROL_NONE;
 240:Core/Src/main.c ****   huart2.Init.OverSampling = UART_OVERSAMPLING_16;
 241:Core/Src/main.c ****   if (HAL_UART_Init(&huart2) != HAL_OK)
 242:Core/Src/main.c ****   {
 243:Core/Src/main.c ****     Error_Handler();
 244:Core/Src/main.c ****   }
 245:Core/Src/main.c ****   /* USER CODE BEGIN USART2_Init 2 */
 246:Core/Src/main.c **** 
 247:Core/Src/main.c ****   /* USER CODE END USART2_Init 2 */
 248:Core/Src/main.c **** 
 249:Core/Src/main.c **** }
 250:Core/Src/main.c **** 
 251:Core/Src/main.c **** /**
 252:Core/Src/main.c ****   * @brief GPIO Initialization Function
 253:Core/Src/main.c ****   * @param None
 254:Core/Src/main.c ****   * @retval None
 255:Core/Src/main.c ****   */
 256:Core/Src/main.c **** static void MX_GPIO_Init(void)
 257:Core/Src/main.c **** {
  28              		.loc 1 257 1 view -0
  29              		.cfi_startproc
ARM GAS  C:\Users\natha\AppData\Local\Temp\ccyfa2Ig.s 			page 6


  30              		@ args = 0, pretend = 0, frame = 40
  31              		@ frame_needed = 0, uses_anonymous_args = 0
  32 0000 30B5     		push	{r4, r5, lr}
  33              	.LCFI0:
  34              		.cfi_def_cfa_offset 12
  35              		.cfi_offset 4, -12
  36              		.cfi_offset 5, -8
  37              		.cfi_offset 14, -4
  38 0002 8BB0     		sub	sp, sp, #44
  39              	.LCFI1:
  40              		.cfi_def_cfa_offset 56
 258:Core/Src/main.c ****   GPIO_InitTypeDef GPIO_InitStruct = {0};
  41              		.loc 1 258 3 view .LVU1
  42              		.loc 1 258 20 is_stmt 0 view .LVU2
  43 0004 0024     		movs	r4, #0
  44 0006 0594     		str	r4, [sp, #20]
  45 0008 0694     		str	r4, [sp, #24]
  46 000a 0794     		str	r4, [sp, #28]
  47 000c 0894     		str	r4, [sp, #32]
  48 000e 0994     		str	r4, [sp, #36]
 259:Core/Src/main.c **** 
 260:Core/Src/main.c ****   /* GPIO Ports Clock Enable */
 261:Core/Src/main.c ****   __HAL_RCC_GPIOC_CLK_ENABLE();
  49              		.loc 1 261 3 is_stmt 1 view .LVU3
  50              	.LBB4:
  51              		.loc 1 261 3 view .LVU4
  52 0010 0194     		str	r4, [sp, #4]
  53              		.loc 1 261 3 view .LVU5
  54 0012 224B     		ldr	r3, .L3
  55 0014 1A6B     		ldr	r2, [r3, #48]
  56 0016 42F00402 		orr	r2, r2, #4
  57 001a 1A63     		str	r2, [r3, #48]
  58              		.loc 1 261 3 view .LVU6
  59 001c 1A6B     		ldr	r2, [r3, #48]
  60 001e 02F00402 		and	r2, r2, #4
  61 0022 0192     		str	r2, [sp, #4]
  62              		.loc 1 261 3 view .LVU7
  63 0024 019A     		ldr	r2, [sp, #4]
  64              	.LBE4:
  65              		.loc 1 261 3 view .LVU8
 262:Core/Src/main.c ****   __HAL_RCC_GPIOH_CLK_ENABLE();
  66              		.loc 1 262 3 view .LVU9
  67              	.LBB5:
  68              		.loc 1 262 3 view .LVU10
  69 0026 0294     		str	r4, [sp, #8]
  70              		.loc 1 262 3 view .LVU11
  71 0028 1A6B     		ldr	r2, [r3, #48]
  72 002a 42F08002 		orr	r2, r2, #128
  73 002e 1A63     		str	r2, [r3, #48]
  74              		.loc 1 262 3 view .LVU12
  75 0030 1A6B     		ldr	r2, [r3, #48]
  76 0032 02F08002 		and	r2, r2, #128
  77 0036 0292     		str	r2, [sp, #8]
  78              		.loc 1 262 3 view .LVU13
  79 0038 029A     		ldr	r2, [sp, #8]
  80              	.LBE5:
  81              		.loc 1 262 3 view .LVU14
ARM GAS  C:\Users\natha\AppData\Local\Temp\ccyfa2Ig.s 			page 7


 263:Core/Src/main.c ****   __HAL_RCC_GPIOA_CLK_ENABLE();
  82              		.loc 1 263 3 view .LVU15
  83              	.LBB6:
  84              		.loc 1 263 3 view .LVU16
  85 003a 0394     		str	r4, [sp, #12]
  86              		.loc 1 263 3 view .LVU17
  87 003c 1A6B     		ldr	r2, [r3, #48]
  88 003e 42F00102 		orr	r2, r2, #1
  89 0042 1A63     		str	r2, [r3, #48]
  90              		.loc 1 263 3 view .LVU18
  91 0044 1A6B     		ldr	r2, [r3, #48]
  92 0046 02F00102 		and	r2, r2, #1
  93 004a 0392     		str	r2, [sp, #12]
  94              		.loc 1 263 3 view .LVU19
  95 004c 039A     		ldr	r2, [sp, #12]
  96              	.LBE6:
  97              		.loc 1 263 3 view .LVU20
 264:Core/Src/main.c ****   __HAL_RCC_GPIOB_CLK_ENABLE();
  98              		.loc 1 264 3 view .LVU21
  99              	.LBB7:
 100              		.loc 1 264 3 view .LVU22
 101 004e 0494     		str	r4, [sp, #16]
 102              		.loc 1 264 3 view .LVU23
 103 0050 1A6B     		ldr	r2, [r3, #48]
 104 0052 42F00202 		orr	r2, r2, #2
 105 0056 1A63     		str	r2, [r3, #48]
 106              		.loc 1 264 3 view .LVU24
 107 0058 1B6B     		ldr	r3, [r3, #48]
 108 005a 03F00203 		and	r3, r3, #2
 109 005e 0493     		str	r3, [sp, #16]
 110              		.loc 1 264 3 view .LVU25
 111 0060 049B     		ldr	r3, [sp, #16]
 112              	.LBE7:
 113              		.loc 1 264 3 view .LVU26
 265:Core/Src/main.c **** 
 266:Core/Src/main.c ****   /*Configure GPIO pin Output Level */
 267:Core/Src/main.c ****   HAL_GPIO_WritePin(LD2_GPIO_Port, LD2_Pin, GPIO_PIN_RESET);
 114              		.loc 1 267 3 view .LVU27
 115 0062 0F4D     		ldr	r5, .L3+4
 116 0064 2246     		mov	r2, r4
 117 0066 2021     		movs	r1, #32
 118 0068 2846     		mov	r0, r5
 119 006a FFF7FEFF 		bl	HAL_GPIO_WritePin
 120              	.LVL0:
 268:Core/Src/main.c **** 
 269:Core/Src/main.c ****   /*Configure GPIO pin : B1_Pin */
 270:Core/Src/main.c ****   GPIO_InitStruct.Pin = B1_Pin;
 121              		.loc 1 270 3 view .LVU28
 122              		.loc 1 270 23 is_stmt 0 view .LVU29
 123 006e 4FF40053 		mov	r3, #8192
 124 0072 0593     		str	r3, [sp, #20]
 271:Core/Src/main.c ****   GPIO_InitStruct.Mode = GPIO_MODE_IT_FALLING;
 125              		.loc 1 271 3 is_stmt 1 view .LVU30
 126              		.loc 1 271 24 is_stmt 0 view .LVU31
 127 0074 4FF40413 		mov	r3, #2162688
 128 0078 0693     		str	r3, [sp, #24]
 272:Core/Src/main.c ****   GPIO_InitStruct.Pull = GPIO_NOPULL;
ARM GAS  C:\Users\natha\AppData\Local\Temp\ccyfa2Ig.s 			page 8


 129              		.loc 1 272 3 is_stmt 1 view .LVU32
 130              		.loc 1 272 24 is_stmt 0 view .LVU33
 131 007a 0794     		str	r4, [sp, #28]
 273:Core/Src/main.c ****   HAL_GPIO_Init(B1_GPIO_Port, &GPIO_InitStruct);
 132              		.loc 1 273 3 is_stmt 1 view .LVU34
 133 007c 05A9     		add	r1, sp, #20
 134 007e 0948     		ldr	r0, .L3+8
 135 0080 FFF7FEFF 		bl	HAL_GPIO_Init
 136              	.LVL1:
 274:Core/Src/main.c **** 
 275:Core/Src/main.c ****   /*Configure GPIO pin : LD2_Pin */
 276:Core/Src/main.c ****   GPIO_InitStruct.Pin = LD2_Pin;
 137              		.loc 1 276 3 view .LVU35
 138              		.loc 1 276 23 is_stmt 0 view .LVU36
 139 0084 2023     		movs	r3, #32
 140 0086 0593     		str	r3, [sp, #20]
 277:Core/Src/main.c ****   GPIO_InitStruct.Mode = GPIO_MODE_OUTPUT_PP;
 141              		.loc 1 277 3 is_stmt 1 view .LVU37
 142              		.loc 1 277 24 is_stmt 0 view .LVU38
 143 0088 0123     		movs	r3, #1
 144 008a 0693     		str	r3, [sp, #24]
 278:Core/Src/main.c ****   GPIO_InitStruct.Pull = GPIO_NOPULL;
 145              		.loc 1 278 3 is_stmt 1 view .LVU39
 146              		.loc 1 278 24 is_stmt 0 view .LVU40
 147 008c 0794     		str	r4, [sp, #28]
 279:Core/Src/main.c ****   GPIO_InitStruct.Speed = GPIO_SPEED_FREQ_LOW;
 148              		.loc 1 279 3 is_stmt 1 view .LVU41
 149              		.loc 1 279 25 is_stmt 0 view .LVU42
 150 008e 0894     		str	r4, [sp, #32]
 280:Core/Src/main.c ****   HAL_GPIO_Init(LD2_GPIO_Port, &GPIO_InitStruct);
 151              		.loc 1 280 3 is_stmt 1 view .LVU43
 152 0090 05A9     		add	r1, sp, #20
 153 0092 2846     		mov	r0, r5
 154 0094 FFF7FEFF 		bl	HAL_GPIO_Init
 155              	.LVL2:
 281:Core/Src/main.c **** 
 282:Core/Src/main.c **** }
 156              		.loc 1 282 1 is_stmt 0 view .LVU44
 157 0098 0BB0     		add	sp, sp, #44
 158              	.LCFI2:
 159              		.cfi_def_cfa_offset 12
 160              		@ sp needed
 161 009a 30BD     		pop	{r4, r5, pc}
 162              	.L4:
 163              		.align	2
 164              	.L3:
 165 009c 00380240 		.word	1073887232
 166 00a0 00000240 		.word	1073872896
 167 00a4 00080240 		.word	1073874944
 168              		.cfi_endproc
 169              	.LFE134:
 171              		.section	.text.Error_Handler,"ax",%progbits
 172              		.align	1
 173              		.global	Error_Handler
 174              		.syntax unified
 175              		.thumb
 176              		.thumb_func
ARM GAS  C:\Users\natha\AppData\Local\Temp\ccyfa2Ig.s 			page 9


 178              	Error_Handler:
 179              	.LFB135:
 283:Core/Src/main.c **** 
 284:Core/Src/main.c **** /* USER CODE BEGIN 4 */
 285:Core/Src/main.c **** 
 286:Core/Src/main.c **** /* USER CODE END 4 */
 287:Core/Src/main.c **** 
 288:Core/Src/main.c **** /**
 289:Core/Src/main.c ****   * @brief  This function is executed in case of error occurrence.
 290:Core/Src/main.c ****   * @retval None
 291:Core/Src/main.c ****   */
 292:Core/Src/main.c **** void Error_Handler(void)
 293:Core/Src/main.c **** {
 180              		.loc 1 293 1 is_stmt 1 view -0
 181              		.cfi_startproc
 182              		@ Volatile: function does not return.
 183              		@ args = 0, pretend = 0, frame = 0
 184              		@ frame_needed = 0, uses_anonymous_args = 0
 185              		@ link register save eliminated.
 294:Core/Src/main.c ****   /* USER CODE BEGIN Error_Handler_Debug */
 295:Core/Src/main.c ****   /* User can add his own implementation to report the HAL error return state */
 296:Core/Src/main.c ****   __disable_irq();
 186              		.loc 1 296 3 view .LVU46
 187              	.LBB8:
 188              	.LBI8:
 189              		.file 2 "Drivers/CMSIS/Include/cmsis_gcc.h"
   1:Drivers/CMSIS/Include/cmsis_gcc.h **** /**************************************************************************//**
   2:Drivers/CMSIS/Include/cmsis_gcc.h ****  * @file     cmsis_gcc.h
   3:Drivers/CMSIS/Include/cmsis_gcc.h ****  * @brief    CMSIS compiler GCC header file
   4:Drivers/CMSIS/Include/cmsis_gcc.h ****  * @version  V5.0.4
   5:Drivers/CMSIS/Include/cmsis_gcc.h ****  * @date     09. April 2018
   6:Drivers/CMSIS/Include/cmsis_gcc.h ****  ******************************************************************************/
   7:Drivers/CMSIS/Include/cmsis_gcc.h **** /*
   8:Drivers/CMSIS/Include/cmsis_gcc.h ****  * Copyright (c) 2009-2018 Arm Limited. All rights reserved.
   9:Drivers/CMSIS/Include/cmsis_gcc.h ****  *
  10:Drivers/CMSIS/Include/cmsis_gcc.h ****  * SPDX-License-Identifier: Apache-2.0
  11:Drivers/CMSIS/Include/cmsis_gcc.h ****  *
  12:Drivers/CMSIS/Include/cmsis_gcc.h ****  * Licensed under the Apache License, Version 2.0 (the License); you may
  13:Drivers/CMSIS/Include/cmsis_gcc.h ****  * not use this file except in compliance with the License.
  14:Drivers/CMSIS/Include/cmsis_gcc.h ****  * You may obtain a copy of the License at
  15:Drivers/CMSIS/Include/cmsis_gcc.h ****  *
  16:Drivers/CMSIS/Include/cmsis_gcc.h ****  * www.apache.org/licenses/LICENSE-2.0
  17:Drivers/CMSIS/Include/cmsis_gcc.h ****  *
  18:Drivers/CMSIS/Include/cmsis_gcc.h ****  * Unless required by applicable law or agreed to in writing, software
  19:Drivers/CMSIS/Include/cmsis_gcc.h ****  * distributed under the License is distributed on an AS IS BASIS, WITHOUT
  20:Drivers/CMSIS/Include/cmsis_gcc.h ****  * WARRANTIES OR CONDITIONS OF ANY KIND, either express or implied.
  21:Drivers/CMSIS/Include/cmsis_gcc.h ****  * See the License for the specific language governing permissions and
  22:Drivers/CMSIS/Include/cmsis_gcc.h ****  * limitations under the License.
  23:Drivers/CMSIS/Include/cmsis_gcc.h ****  */
  24:Drivers/CMSIS/Include/cmsis_gcc.h **** 
  25:Drivers/CMSIS/Include/cmsis_gcc.h **** #ifndef __CMSIS_GCC_H
  26:Drivers/CMSIS/Include/cmsis_gcc.h **** #define __CMSIS_GCC_H
  27:Drivers/CMSIS/Include/cmsis_gcc.h **** 
  28:Drivers/CMSIS/Include/cmsis_gcc.h **** /* ignore some GCC warnings */
  29:Drivers/CMSIS/Include/cmsis_gcc.h **** #pragma GCC diagnostic push
  30:Drivers/CMSIS/Include/cmsis_gcc.h **** #pragma GCC diagnostic ignored "-Wsign-conversion"
  31:Drivers/CMSIS/Include/cmsis_gcc.h **** #pragma GCC diagnostic ignored "-Wconversion"
ARM GAS  C:\Users\natha\AppData\Local\Temp\ccyfa2Ig.s 			page 10


  32:Drivers/CMSIS/Include/cmsis_gcc.h **** #pragma GCC diagnostic ignored "-Wunused-parameter"
  33:Drivers/CMSIS/Include/cmsis_gcc.h **** 
  34:Drivers/CMSIS/Include/cmsis_gcc.h **** /* Fallback for __has_builtin */
  35:Drivers/CMSIS/Include/cmsis_gcc.h **** #ifndef __has_builtin
  36:Drivers/CMSIS/Include/cmsis_gcc.h ****   #define __has_builtin(x) (0)
  37:Drivers/CMSIS/Include/cmsis_gcc.h **** #endif
  38:Drivers/CMSIS/Include/cmsis_gcc.h **** 
  39:Drivers/CMSIS/Include/cmsis_gcc.h **** /* CMSIS compiler specific defines */
  40:Drivers/CMSIS/Include/cmsis_gcc.h **** #ifndef   __ASM
  41:Drivers/CMSIS/Include/cmsis_gcc.h ****   #define __ASM                                  __asm
  42:Drivers/CMSIS/Include/cmsis_gcc.h **** #endif
  43:Drivers/CMSIS/Include/cmsis_gcc.h **** #ifndef   __INLINE
  44:Drivers/CMSIS/Include/cmsis_gcc.h ****   #define __INLINE                               inline
  45:Drivers/CMSIS/Include/cmsis_gcc.h **** #endif
  46:Drivers/CMSIS/Include/cmsis_gcc.h **** #ifndef   __STATIC_INLINE
  47:Drivers/CMSIS/Include/cmsis_gcc.h ****   #define __STATIC_INLINE                        static inline
  48:Drivers/CMSIS/Include/cmsis_gcc.h **** #endif
  49:Drivers/CMSIS/Include/cmsis_gcc.h **** #ifndef   __STATIC_FORCEINLINE                 
  50:Drivers/CMSIS/Include/cmsis_gcc.h ****   #define __STATIC_FORCEINLINE                   __attribute__((always_inline)) static inline
  51:Drivers/CMSIS/Include/cmsis_gcc.h **** #endif                                           
  52:Drivers/CMSIS/Include/cmsis_gcc.h **** #ifndef   __NO_RETURN
  53:Drivers/CMSIS/Include/cmsis_gcc.h ****   #define __NO_RETURN                            __attribute__((__noreturn__))
  54:Drivers/CMSIS/Include/cmsis_gcc.h **** #endif
  55:Drivers/CMSIS/Include/cmsis_gcc.h **** #ifndef   __USED
  56:Drivers/CMSIS/Include/cmsis_gcc.h ****   #define __USED                                 __attribute__((used))
  57:Drivers/CMSIS/Include/cmsis_gcc.h **** #endif
  58:Drivers/CMSIS/Include/cmsis_gcc.h **** #ifndef   __WEAK
  59:Drivers/CMSIS/Include/cmsis_gcc.h ****   #define __WEAK                                 __attribute__((weak))
  60:Drivers/CMSIS/Include/cmsis_gcc.h **** #endif
  61:Drivers/CMSIS/Include/cmsis_gcc.h **** #ifndef   __PACKED
  62:Drivers/CMSIS/Include/cmsis_gcc.h ****   #define __PACKED                               __attribute__((packed, aligned(1)))
  63:Drivers/CMSIS/Include/cmsis_gcc.h **** #endif
  64:Drivers/CMSIS/Include/cmsis_gcc.h **** #ifndef   __PACKED_STRUCT
  65:Drivers/CMSIS/Include/cmsis_gcc.h ****   #define __PACKED_STRUCT                        struct __attribute__((packed, aligned(1)))
  66:Drivers/CMSIS/Include/cmsis_gcc.h **** #endif
  67:Drivers/CMSIS/Include/cmsis_gcc.h **** #ifndef   __PACKED_UNION
  68:Drivers/CMSIS/Include/cmsis_gcc.h ****   #define __PACKED_UNION                         union __attribute__((packed, aligned(1)))
  69:Drivers/CMSIS/Include/cmsis_gcc.h **** #endif
  70:Drivers/CMSIS/Include/cmsis_gcc.h **** #ifndef   __UNALIGNED_UINT32        /* deprecated */
  71:Drivers/CMSIS/Include/cmsis_gcc.h ****   #pragma GCC diagnostic push
  72:Drivers/CMSIS/Include/cmsis_gcc.h ****   #pragma GCC diagnostic ignored "-Wpacked"
  73:Drivers/CMSIS/Include/cmsis_gcc.h ****   #pragma GCC diagnostic ignored "-Wattributes"
  74:Drivers/CMSIS/Include/cmsis_gcc.h ****   struct __attribute__((packed)) T_UINT32 { uint32_t v; };
  75:Drivers/CMSIS/Include/cmsis_gcc.h ****   #pragma GCC diagnostic pop
  76:Drivers/CMSIS/Include/cmsis_gcc.h ****   #define __UNALIGNED_UINT32(x)                  (((struct T_UINT32 *)(x))->v)
  77:Drivers/CMSIS/Include/cmsis_gcc.h **** #endif
  78:Drivers/CMSIS/Include/cmsis_gcc.h **** #ifndef   __UNALIGNED_UINT16_WRITE
  79:Drivers/CMSIS/Include/cmsis_gcc.h ****   #pragma GCC diagnostic push
  80:Drivers/CMSIS/Include/cmsis_gcc.h ****   #pragma GCC diagnostic ignored "-Wpacked"
  81:Drivers/CMSIS/Include/cmsis_gcc.h ****   #pragma GCC diagnostic ignored "-Wattributes"
  82:Drivers/CMSIS/Include/cmsis_gcc.h ****   __PACKED_STRUCT T_UINT16_WRITE { uint16_t v; };
  83:Drivers/CMSIS/Include/cmsis_gcc.h ****   #pragma GCC diagnostic pop
  84:Drivers/CMSIS/Include/cmsis_gcc.h ****   #define __UNALIGNED_UINT16_WRITE(addr, val)    (void)((((struct T_UINT16_WRITE *)(void *)(addr))-
  85:Drivers/CMSIS/Include/cmsis_gcc.h **** #endif
  86:Drivers/CMSIS/Include/cmsis_gcc.h **** #ifndef   __UNALIGNED_UINT16_READ
  87:Drivers/CMSIS/Include/cmsis_gcc.h ****   #pragma GCC diagnostic push
  88:Drivers/CMSIS/Include/cmsis_gcc.h ****   #pragma GCC diagnostic ignored "-Wpacked"
ARM GAS  C:\Users\natha\AppData\Local\Temp\ccyfa2Ig.s 			page 11


  89:Drivers/CMSIS/Include/cmsis_gcc.h ****   #pragma GCC diagnostic ignored "-Wattributes"
  90:Drivers/CMSIS/Include/cmsis_gcc.h ****   __PACKED_STRUCT T_UINT16_READ { uint16_t v; };
  91:Drivers/CMSIS/Include/cmsis_gcc.h ****   #pragma GCC diagnostic pop
  92:Drivers/CMSIS/Include/cmsis_gcc.h ****   #define __UNALIGNED_UINT16_READ(addr)          (((const struct T_UINT16_READ *)(const void *)(add
  93:Drivers/CMSIS/Include/cmsis_gcc.h **** #endif
  94:Drivers/CMSIS/Include/cmsis_gcc.h **** #ifndef   __UNALIGNED_UINT32_WRITE
  95:Drivers/CMSIS/Include/cmsis_gcc.h ****   #pragma GCC diagnostic push
  96:Drivers/CMSIS/Include/cmsis_gcc.h ****   #pragma GCC diagnostic ignored "-Wpacked"
  97:Drivers/CMSIS/Include/cmsis_gcc.h ****   #pragma GCC diagnostic ignored "-Wattributes"
  98:Drivers/CMSIS/Include/cmsis_gcc.h ****   __PACKED_STRUCT T_UINT32_WRITE { uint32_t v; };
  99:Drivers/CMSIS/Include/cmsis_gcc.h ****   #pragma GCC diagnostic pop
 100:Drivers/CMSIS/Include/cmsis_gcc.h ****   #define __UNALIGNED_UINT32_WRITE(addr, val)    (void)((((struct T_UINT32_WRITE *)(void *)(addr))-
 101:Drivers/CMSIS/Include/cmsis_gcc.h **** #endif
 102:Drivers/CMSIS/Include/cmsis_gcc.h **** #ifndef   __UNALIGNED_UINT32_READ
 103:Drivers/CMSIS/Include/cmsis_gcc.h ****   #pragma GCC diagnostic push
 104:Drivers/CMSIS/Include/cmsis_gcc.h ****   #pragma GCC diagnostic ignored "-Wpacked"
 105:Drivers/CMSIS/Include/cmsis_gcc.h ****   #pragma GCC diagnostic ignored "-Wattributes"
 106:Drivers/CMSIS/Include/cmsis_gcc.h ****   __PACKED_STRUCT T_UINT32_READ { uint32_t v; };
 107:Drivers/CMSIS/Include/cmsis_gcc.h ****   #pragma GCC diagnostic pop
 108:Drivers/CMSIS/Include/cmsis_gcc.h ****   #define __UNALIGNED_UINT32_READ(addr)          (((const struct T_UINT32_READ *)(const void *)(add
 109:Drivers/CMSIS/Include/cmsis_gcc.h **** #endif
 110:Drivers/CMSIS/Include/cmsis_gcc.h **** #ifndef   __ALIGNED
 111:Drivers/CMSIS/Include/cmsis_gcc.h ****   #define __ALIGNED(x)                           __attribute__((aligned(x)))
 112:Drivers/CMSIS/Include/cmsis_gcc.h **** #endif
 113:Drivers/CMSIS/Include/cmsis_gcc.h **** #ifndef   __RESTRICT
 114:Drivers/CMSIS/Include/cmsis_gcc.h ****   #define __RESTRICT                             __restrict
 115:Drivers/CMSIS/Include/cmsis_gcc.h **** #endif
 116:Drivers/CMSIS/Include/cmsis_gcc.h **** 
 117:Drivers/CMSIS/Include/cmsis_gcc.h **** 
 118:Drivers/CMSIS/Include/cmsis_gcc.h **** /* ###########################  Core Function Access  ########################### */
 119:Drivers/CMSIS/Include/cmsis_gcc.h **** /** \ingroup  CMSIS_Core_FunctionInterface
 120:Drivers/CMSIS/Include/cmsis_gcc.h ****     \defgroup CMSIS_Core_RegAccFunctions CMSIS Core Register Access Functions
 121:Drivers/CMSIS/Include/cmsis_gcc.h ****   @{
 122:Drivers/CMSIS/Include/cmsis_gcc.h ****  */
 123:Drivers/CMSIS/Include/cmsis_gcc.h **** 
 124:Drivers/CMSIS/Include/cmsis_gcc.h **** /**
 125:Drivers/CMSIS/Include/cmsis_gcc.h ****   \brief   Enable IRQ Interrupts
 126:Drivers/CMSIS/Include/cmsis_gcc.h ****   \details Enables IRQ interrupts by clearing the I-bit in the CPSR.
 127:Drivers/CMSIS/Include/cmsis_gcc.h ****            Can only be executed in Privileged modes.
 128:Drivers/CMSIS/Include/cmsis_gcc.h ****  */
 129:Drivers/CMSIS/Include/cmsis_gcc.h **** __STATIC_FORCEINLINE void __enable_irq(void)
 130:Drivers/CMSIS/Include/cmsis_gcc.h **** {
 131:Drivers/CMSIS/Include/cmsis_gcc.h ****   __ASM volatile ("cpsie i" : : : "memory");
 132:Drivers/CMSIS/Include/cmsis_gcc.h **** }
 133:Drivers/CMSIS/Include/cmsis_gcc.h **** 
 134:Drivers/CMSIS/Include/cmsis_gcc.h **** 
 135:Drivers/CMSIS/Include/cmsis_gcc.h **** /**
 136:Drivers/CMSIS/Include/cmsis_gcc.h ****   \brief   Disable IRQ Interrupts
 137:Drivers/CMSIS/Include/cmsis_gcc.h ****   \details Disables IRQ interrupts by setting the I-bit in the CPSR.
 138:Drivers/CMSIS/Include/cmsis_gcc.h ****            Can only be executed in Privileged modes.
 139:Drivers/CMSIS/Include/cmsis_gcc.h ****  */
 140:Drivers/CMSIS/Include/cmsis_gcc.h **** __STATIC_FORCEINLINE void __disable_irq(void)
 190              		.loc 2 140 27 view .LVU47
 191              	.LBB9:
 141:Drivers/CMSIS/Include/cmsis_gcc.h **** {
 142:Drivers/CMSIS/Include/cmsis_gcc.h ****   __ASM volatile ("cpsid i" : : : "memory");
 192              		.loc 2 142 3 view .LVU48
ARM GAS  C:\Users\natha\AppData\Local\Temp\ccyfa2Ig.s 			page 12


 193              		.syntax unified
 194              	@ 142 "Drivers/CMSIS/Include/cmsis_gcc.h" 1
 195 0000 72B6     		cpsid i
 196              	@ 0 "" 2
 197              		.thumb
 198              		.syntax unified
 199              	.L6:
 200              	.LBE9:
 201              	.LBE8:
 297:Core/Src/main.c ****   while (1)
 202              		.loc 1 297 3 discriminator 1 view .LVU49
 298:Core/Src/main.c ****   {
 299:Core/Src/main.c ****   }
 203              		.loc 1 299 3 discriminator 1 view .LVU50
 297:Core/Src/main.c ****   while (1)
 204              		.loc 1 297 9 discriminator 1 view .LVU51
 205 0002 FEE7     		b	.L6
 206              		.cfi_endproc
 207              	.LFE135:
 209              		.section	.text.MX_USART2_UART_Init,"ax",%progbits
 210              		.align	1
 211              		.syntax unified
 212              		.thumb
 213              		.thumb_func
 215              	MX_USART2_UART_Init:
 216              	.LFB133:
 224:Core/Src/main.c **** 
 217              		.loc 1 224 1 view -0
 218              		.cfi_startproc
 219              		@ args = 0, pretend = 0, frame = 0
 220              		@ frame_needed = 0, uses_anonymous_args = 0
 221 0000 08B5     		push	{r3, lr}
 222              	.LCFI3:
 223              		.cfi_def_cfa_offset 8
 224              		.cfi_offset 3, -8
 225              		.cfi_offset 14, -4
 233:Core/Src/main.c ****   huart2.Init.BaudRate = 115200;
 226              		.loc 1 233 3 view .LVU53
 233:Core/Src/main.c ****   huart2.Init.BaudRate = 115200;
 227              		.loc 1 233 19 is_stmt 0 view .LVU54
 228 0002 0A48     		ldr	r0, .L11
 229 0004 0A4B     		ldr	r3, .L11+4
 230 0006 0360     		str	r3, [r0]
 234:Core/Src/main.c ****   huart2.Init.WordLength = UART_WORDLENGTH_8B;
 231              		.loc 1 234 3 is_stmt 1 view .LVU55
 234:Core/Src/main.c ****   huart2.Init.WordLength = UART_WORDLENGTH_8B;
 232              		.loc 1 234 24 is_stmt 0 view .LVU56
 233 0008 4FF4E133 		mov	r3, #115200
 234 000c 4360     		str	r3, [r0, #4]
 235:Core/Src/main.c ****   huart2.Init.StopBits = UART_STOPBITS_1;
 235              		.loc 1 235 3 is_stmt 1 view .LVU57
 235:Core/Src/main.c ****   huart2.Init.StopBits = UART_STOPBITS_1;
 236              		.loc 1 235 26 is_stmt 0 view .LVU58
 237 000e 0023     		movs	r3, #0
 238 0010 8360     		str	r3, [r0, #8]
 236:Core/Src/main.c ****   huart2.Init.Parity = UART_PARITY_NONE;
 239              		.loc 1 236 3 is_stmt 1 view .LVU59
ARM GAS  C:\Users\natha\AppData\Local\Temp\ccyfa2Ig.s 			page 13


 236:Core/Src/main.c ****   huart2.Init.Parity = UART_PARITY_NONE;
 240              		.loc 1 236 24 is_stmt 0 view .LVU60
 241 0012 C360     		str	r3, [r0, #12]
 237:Core/Src/main.c ****   huart2.Init.Mode = UART_MODE_TX_RX;
 242              		.loc 1 237 3 is_stmt 1 view .LVU61
 237:Core/Src/main.c ****   huart2.Init.Mode = UART_MODE_TX_RX;
 243              		.loc 1 237 22 is_stmt 0 view .LVU62
 244 0014 0361     		str	r3, [r0, #16]
 238:Core/Src/main.c ****   huart2.Init.HwFlowCtl = UART_HWCONTROL_NONE;
 245              		.loc 1 238 3 is_stmt 1 view .LVU63
 238:Core/Src/main.c ****   huart2.Init.HwFlowCtl = UART_HWCONTROL_NONE;
 246              		.loc 1 238 20 is_stmt 0 view .LVU64
 247 0016 0C22     		movs	r2, #12
 248 0018 4261     		str	r2, [r0, #20]
 239:Core/Src/main.c ****   huart2.Init.OverSampling = UART_OVERSAMPLING_16;
 249              		.loc 1 239 3 is_stmt 1 view .LVU65
 239:Core/Src/main.c ****   huart2.Init.OverSampling = UART_OVERSAMPLING_16;
 250              		.loc 1 239 25 is_stmt 0 view .LVU66
 251 001a 8361     		str	r3, [r0, #24]
 240:Core/Src/main.c ****   if (HAL_UART_Init(&huart2) != HAL_OK)
 252              		.loc 1 240 3 is_stmt 1 view .LVU67
 240:Core/Src/main.c ****   if (HAL_UART_Init(&huart2) != HAL_OK)
 253              		.loc 1 240 28 is_stmt 0 view .LVU68
 254 001c C361     		str	r3, [r0, #28]
 241:Core/Src/main.c ****   {
 255              		.loc 1 241 3 is_stmt 1 view .LVU69
 241:Core/Src/main.c ****   {
 256              		.loc 1 241 7 is_stmt 0 view .LVU70
 257 001e FFF7FEFF 		bl	HAL_UART_Init
 258              	.LVL3:
 241:Core/Src/main.c ****   {
 259              		.loc 1 241 6 view .LVU71
 260 0022 00B9     		cbnz	r0, .L10
 249:Core/Src/main.c **** 
 261              		.loc 1 249 1 view .LVU72
 262 0024 08BD     		pop	{r3, pc}
 263              	.L10:
 243:Core/Src/main.c ****   }
 264              		.loc 1 243 5 is_stmt 1 view .LVU73
 265 0026 FFF7FEFF 		bl	Error_Handler
 266              	.LVL4:
 267              	.L12:
 268 002a 00BF     		.align	2
 269              	.L11:
 270 002c 00000000 		.word	huart2
 271 0030 00440040 		.word	1073759232
 272              		.cfi_endproc
 273              	.LFE133:
 275              		.section	.text.MX_TIM3_Init,"ax",%progbits
 276              		.align	1
 277              		.syntax unified
 278              		.thumb
 279              		.thumb_func
 281              	MX_TIM3_Init:
 282              	.LFB132:
 161:Core/Src/main.c **** 
 283              		.loc 1 161 1 view -0
ARM GAS  C:\Users\natha\AppData\Local\Temp\ccyfa2Ig.s 			page 14


 284              		.cfi_startproc
 285              		@ args = 0, pretend = 0, frame = 56
 286              		@ frame_needed = 0, uses_anonymous_args = 0
 287 0000 00B5     		push	{lr}
 288              	.LCFI4:
 289              		.cfi_def_cfa_offset 4
 290              		.cfi_offset 14, -4
 291 0002 8FB0     		sub	sp, sp, #60
 292              	.LCFI5:
 293              		.cfi_def_cfa_offset 64
 167:Core/Src/main.c ****   TIM_MasterConfigTypeDef sMasterConfig = {0};
 294              		.loc 1 167 3 view .LVU75
 167:Core/Src/main.c ****   TIM_MasterConfigTypeDef sMasterConfig = {0};
 295              		.loc 1 167 26 is_stmt 0 view .LVU76
 296 0004 0023     		movs	r3, #0
 297 0006 0A93     		str	r3, [sp, #40]
 298 0008 0B93     		str	r3, [sp, #44]
 299 000a 0C93     		str	r3, [sp, #48]
 300 000c 0D93     		str	r3, [sp, #52]
 168:Core/Src/main.c ****   TIM_OC_InitTypeDef sConfigOC = {0};
 301              		.loc 1 168 3 is_stmt 1 view .LVU77
 168:Core/Src/main.c ****   TIM_OC_InitTypeDef sConfigOC = {0};
 302              		.loc 1 168 27 is_stmt 0 view .LVU78
 303 000e 0893     		str	r3, [sp, #32]
 304 0010 0993     		str	r3, [sp, #36]
 169:Core/Src/main.c **** 
 305              		.loc 1 169 3 is_stmt 1 view .LVU79
 169:Core/Src/main.c **** 
 306              		.loc 1 169 22 is_stmt 0 view .LVU80
 307 0012 0193     		str	r3, [sp, #4]
 308 0014 0293     		str	r3, [sp, #8]
 309 0016 0393     		str	r3, [sp, #12]
 310 0018 0493     		str	r3, [sp, #16]
 311 001a 0593     		str	r3, [sp, #20]
 312 001c 0693     		str	r3, [sp, #24]
 313 001e 0793     		str	r3, [sp, #28]
 174:Core/Src/main.c ****   htim3.Init.Prescaler = 0;
 314              		.loc 1 174 3 is_stmt 1 view .LVU81
 174:Core/Src/main.c ****   htim3.Init.Prescaler = 0;
 315              		.loc 1 174 18 is_stmt 0 view .LVU82
 316 0020 2148     		ldr	r0, .L27
 317 0022 224A     		ldr	r2, .L27+4
 318 0024 0260     		str	r2, [r0]
 175:Core/Src/main.c ****   htim3.Init.CounterMode = TIM_COUNTERMODE_UP;
 319              		.loc 1 175 3 is_stmt 1 view .LVU83
 175:Core/Src/main.c ****   htim3.Init.CounterMode = TIM_COUNTERMODE_UP;
 320              		.loc 1 175 24 is_stmt 0 view .LVU84
 321 0026 4360     		str	r3, [r0, #4]
 176:Core/Src/main.c ****   htim3.Init.Period = 0;
 322              		.loc 1 176 3 is_stmt 1 view .LVU85
 176:Core/Src/main.c ****   htim3.Init.Period = 0;
 323              		.loc 1 176 26 is_stmt 0 view .LVU86
 324 0028 8360     		str	r3, [r0, #8]
 177:Core/Src/main.c ****   htim3.Init.ClockDivision = TIM_CLOCKDIVISION_DIV1;
 325              		.loc 1 177 3 is_stmt 1 view .LVU87
 177:Core/Src/main.c ****   htim3.Init.ClockDivision = TIM_CLOCKDIVISION_DIV1;
 326              		.loc 1 177 21 is_stmt 0 view .LVU88
ARM GAS  C:\Users\natha\AppData\Local\Temp\ccyfa2Ig.s 			page 15


 327 002a C360     		str	r3, [r0, #12]
 178:Core/Src/main.c ****   htim3.Init.AutoReloadPreload = TIM_AUTORELOAD_PRELOAD_DISABLE;
 328              		.loc 1 178 3 is_stmt 1 view .LVU89
 178:Core/Src/main.c ****   htim3.Init.AutoReloadPreload = TIM_AUTORELOAD_PRELOAD_DISABLE;
 329              		.loc 1 178 28 is_stmt 0 view .LVU90
 330 002c 0361     		str	r3, [r0, #16]
 179:Core/Src/main.c ****   if (HAL_TIM_Base_Init(&htim3) != HAL_OK)
 331              		.loc 1 179 3 is_stmt 1 view .LVU91
 179:Core/Src/main.c ****   if (HAL_TIM_Base_Init(&htim3) != HAL_OK)
 332              		.loc 1 179 32 is_stmt 0 view .LVU92
 333 002e 8361     		str	r3, [r0, #24]
 180:Core/Src/main.c ****   {
 334              		.loc 1 180 3 is_stmt 1 view .LVU93
 180:Core/Src/main.c ****   {
 335              		.loc 1 180 7 is_stmt 0 view .LVU94
 336 0030 FFF7FEFF 		bl	HAL_TIM_Base_Init
 337              	.LVL5:
 180:Core/Src/main.c ****   {
 338              		.loc 1 180 6 view .LVU95
 339 0034 58BB     		cbnz	r0, .L21
 184:Core/Src/main.c ****   if (HAL_TIM_ConfigClockSource(&htim3, &sClockSourceConfig) != HAL_OK)
 340              		.loc 1 184 3 is_stmt 1 view .LVU96
 184:Core/Src/main.c ****   if (HAL_TIM_ConfigClockSource(&htim3, &sClockSourceConfig) != HAL_OK)
 341              		.loc 1 184 34 is_stmt 0 view .LVU97
 342 0036 4FF48053 		mov	r3, #4096
 343 003a 0A93     		str	r3, [sp, #40]
 185:Core/Src/main.c ****   {
 344              		.loc 1 185 3 is_stmt 1 view .LVU98
 185:Core/Src/main.c ****   {
 345              		.loc 1 185 7 is_stmt 0 view .LVU99
 346 003c 0AA9     		add	r1, sp, #40
 347 003e 1A48     		ldr	r0, .L27
 348 0040 FFF7FEFF 		bl	HAL_TIM_ConfigClockSource
 349              	.LVL6:
 185:Core/Src/main.c ****   {
 350              		.loc 1 185 6 view .LVU100
 351 0044 28BB     		cbnz	r0, .L22
 189:Core/Src/main.c ****   {
 352              		.loc 1 189 3 is_stmt 1 view .LVU101
 189:Core/Src/main.c ****   {
 353              		.loc 1 189 7 is_stmt 0 view .LVU102
 354 0046 1848     		ldr	r0, .L27
 355 0048 FFF7FEFF 		bl	HAL_TIM_PWM_Init
 356              	.LVL7:
 189:Core/Src/main.c ****   {
 357              		.loc 1 189 6 view .LVU103
 358 004c 18BB     		cbnz	r0, .L23
 193:Core/Src/main.c ****   sMasterConfig.MasterSlaveMode = TIM_MASTERSLAVEMODE_DISABLE;
 359              		.loc 1 193 3 is_stmt 1 view .LVU104
 193:Core/Src/main.c ****   sMasterConfig.MasterSlaveMode = TIM_MASTERSLAVEMODE_DISABLE;
 360              		.loc 1 193 37 is_stmt 0 view .LVU105
 361 004e 0023     		movs	r3, #0
 362 0050 0893     		str	r3, [sp, #32]
 194:Core/Src/main.c ****   if (HAL_TIMEx_MasterConfigSynchronization(&htim3, &sMasterConfig) != HAL_OK)
 363              		.loc 1 194 3 is_stmt 1 view .LVU106
 194:Core/Src/main.c ****   if (HAL_TIMEx_MasterConfigSynchronization(&htim3, &sMasterConfig) != HAL_OK)
 364              		.loc 1 194 33 is_stmt 0 view .LVU107
ARM GAS  C:\Users\natha\AppData\Local\Temp\ccyfa2Ig.s 			page 16


 365 0052 0993     		str	r3, [sp, #36]
 195:Core/Src/main.c ****   {
 366              		.loc 1 195 3 is_stmt 1 view .LVU108
 195:Core/Src/main.c ****   {
 367              		.loc 1 195 7 is_stmt 0 view .LVU109
 368 0054 08A9     		add	r1, sp, #32
 369 0056 1448     		ldr	r0, .L27
 370 0058 FFF7FEFF 		bl	HAL_TIMEx_MasterConfigSynchronization
 371              	.LVL8:
 195:Core/Src/main.c ****   {
 372              		.loc 1 195 6 view .LVU110
 373 005c E8B9     		cbnz	r0, .L24
 199:Core/Src/main.c ****   sConfigOC.Pulse = 0;
 374              		.loc 1 199 3 is_stmt 1 view .LVU111
 199:Core/Src/main.c ****   sConfigOC.Pulse = 0;
 375              		.loc 1 199 20 is_stmt 0 view .LVU112
 376 005e 6023     		movs	r3, #96
 377 0060 0193     		str	r3, [sp, #4]
 200:Core/Src/main.c ****   sConfigOC.OCPolarity = TIM_OCPOLARITY_HIGH;
 378              		.loc 1 200 3 is_stmt 1 view .LVU113
 200:Core/Src/main.c ****   sConfigOC.OCPolarity = TIM_OCPOLARITY_HIGH;
 379              		.loc 1 200 19 is_stmt 0 view .LVU114
 380 0062 0022     		movs	r2, #0
 381 0064 0292     		str	r2, [sp, #8]
 201:Core/Src/main.c ****   sConfigOC.OCFastMode = TIM_OCFAST_DISABLE;
 382              		.loc 1 201 3 is_stmt 1 view .LVU115
 201:Core/Src/main.c ****   sConfigOC.OCFastMode = TIM_OCFAST_DISABLE;
 383              		.loc 1 201 24 is_stmt 0 view .LVU116
 384 0066 0392     		str	r2, [sp, #12]
 202:Core/Src/main.c ****   if (HAL_TIM_PWM_ConfigChannel(&htim3, &sConfigOC, TIM_CHANNEL_1) != HAL_OK)
 385              		.loc 1 202 3 is_stmt 1 view .LVU117
 202:Core/Src/main.c ****   if (HAL_TIM_PWM_ConfigChannel(&htim3, &sConfigOC, TIM_CHANNEL_1) != HAL_OK)
 386              		.loc 1 202 24 is_stmt 0 view .LVU118
 387 0068 0592     		str	r2, [sp, #20]
 203:Core/Src/main.c ****   {
 388              		.loc 1 203 3 is_stmt 1 view .LVU119
 203:Core/Src/main.c ****   {
 389              		.loc 1 203 7 is_stmt 0 view .LVU120
 390 006a 01A9     		add	r1, sp, #4
 391 006c 0E48     		ldr	r0, .L27
 392 006e FFF7FEFF 		bl	HAL_TIM_PWM_ConfigChannel
 393              	.LVL9:
 203:Core/Src/main.c ****   {
 394              		.loc 1 203 6 view .LVU121
 395 0072 A0B9     		cbnz	r0, .L25
 207:Core/Src/main.c ****   {
 396              		.loc 1 207 3 is_stmt 1 view .LVU122
 207:Core/Src/main.c ****   {
 397              		.loc 1 207 7 is_stmt 0 view .LVU123
 398 0074 0422     		movs	r2, #4
 399 0076 0DEB0201 		add	r1, sp, r2
 400 007a 0B48     		ldr	r0, .L27
 401 007c FFF7FEFF 		bl	HAL_TIM_PWM_ConfigChannel
 402              	.LVL10:
 207:Core/Src/main.c ****   {
 403              		.loc 1 207 6 view .LVU124
 404 0080 78B9     		cbnz	r0, .L26
ARM GAS  C:\Users\natha\AppData\Local\Temp\ccyfa2Ig.s 			page 17


 214:Core/Src/main.c **** 
 405              		.loc 1 214 3 is_stmt 1 view .LVU125
 406 0082 0948     		ldr	r0, .L27
 407 0084 FFF7FEFF 		bl	HAL_TIM_MspPostInit
 408              	.LVL11:
 216:Core/Src/main.c **** 
 409              		.loc 1 216 1 is_stmt 0 view .LVU126
 410 0088 0FB0     		add	sp, sp, #60
 411              	.LCFI6:
 412              		.cfi_remember_state
 413              		.cfi_def_cfa_offset 4
 414              		@ sp needed
 415 008a 5DF804FB 		ldr	pc, [sp], #4
 416              	.L21:
 417              	.LCFI7:
 418              		.cfi_restore_state
 182:Core/Src/main.c ****   }
 419              		.loc 1 182 5 is_stmt 1 view .LVU127
 420 008e FFF7FEFF 		bl	Error_Handler
 421              	.LVL12:
 422              	.L22:
 187:Core/Src/main.c ****   }
 423              		.loc 1 187 5 view .LVU128
 424 0092 FFF7FEFF 		bl	Error_Handler
 425              	.LVL13:
 426              	.L23:
 191:Core/Src/main.c ****   }
 427              		.loc 1 191 5 view .LVU129
 428 0096 FFF7FEFF 		bl	Error_Handler
 429              	.LVL14:
 430              	.L24:
 197:Core/Src/main.c ****   }
 431              		.loc 1 197 5 view .LVU130
 432 009a FFF7FEFF 		bl	Error_Handler
 433              	.LVL15:
 434              	.L25:
 205:Core/Src/main.c ****   }
 435              		.loc 1 205 5 view .LVU131
 436 009e FFF7FEFF 		bl	Error_Handler
 437              	.LVL16:
 438              	.L26:
 209:Core/Src/main.c ****   }
 439              		.loc 1 209 5 view .LVU132
 440 00a2 FFF7FEFF 		bl	Error_Handler
 441              	.LVL17:
 442              	.L28:
 443 00a6 00BF     		.align	2
 444              	.L27:
 445 00a8 00000000 		.word	htim3
 446 00ac 00040040 		.word	1073742848
 447              		.cfi_endproc
 448              	.LFE132:
 450              		.section	.text.SystemClock_Config,"ax",%progbits
 451              		.align	1
 452              		.global	SystemClock_Config
 453              		.syntax unified
 454              		.thumb
ARM GAS  C:\Users\natha\AppData\Local\Temp\ccyfa2Ig.s 			page 18


 455              		.thumb_func
 457              	SystemClock_Config:
 458              	.LFB131:
 114:Core/Src/main.c ****   RCC_OscInitTypeDef RCC_OscInitStruct = {0};
 459              		.loc 1 114 1 view -0
 460              		.cfi_startproc
 461              		@ args = 0, pretend = 0, frame = 80
 462              		@ frame_needed = 0, uses_anonymous_args = 0
 463 0000 00B5     		push	{lr}
 464              	.LCFI8:
 465              		.cfi_def_cfa_offset 4
 466              		.cfi_offset 14, -4
 467 0002 95B0     		sub	sp, sp, #84
 468              	.LCFI9:
 469              		.cfi_def_cfa_offset 88
 115:Core/Src/main.c ****   RCC_ClkInitTypeDef RCC_ClkInitStruct = {0};
 470              		.loc 1 115 3 view .LVU134
 115:Core/Src/main.c ****   RCC_ClkInitTypeDef RCC_ClkInitStruct = {0};
 471              		.loc 1 115 22 is_stmt 0 view .LVU135
 472 0004 3022     		movs	r2, #48
 473 0006 0021     		movs	r1, #0
 474 0008 08A8     		add	r0, sp, #32
 475 000a FFF7FEFF 		bl	memset
 476              	.LVL18:
 116:Core/Src/main.c **** 
 477              		.loc 1 116 3 is_stmt 1 view .LVU136
 116:Core/Src/main.c **** 
 478              		.loc 1 116 22 is_stmt 0 view .LVU137
 479 000e 0023     		movs	r3, #0
 480 0010 0393     		str	r3, [sp, #12]
 481 0012 0493     		str	r3, [sp, #16]
 482 0014 0593     		str	r3, [sp, #20]
 483 0016 0693     		str	r3, [sp, #24]
 484 0018 0793     		str	r3, [sp, #28]
 120:Core/Src/main.c ****   __HAL_PWR_VOLTAGESCALING_CONFIG(PWR_REGULATOR_VOLTAGE_SCALE2);
 485              		.loc 1 120 3 is_stmt 1 view .LVU138
 486              	.LBB10:
 120:Core/Src/main.c ****   __HAL_PWR_VOLTAGESCALING_CONFIG(PWR_REGULATOR_VOLTAGE_SCALE2);
 487              		.loc 1 120 3 view .LVU139
 488 001a 0193     		str	r3, [sp, #4]
 120:Core/Src/main.c ****   __HAL_PWR_VOLTAGESCALING_CONFIG(PWR_REGULATOR_VOLTAGE_SCALE2);
 489              		.loc 1 120 3 view .LVU140
 490 001c 1F4A     		ldr	r2, .L35
 491 001e 116C     		ldr	r1, [r2, #64]
 492 0020 41F08051 		orr	r1, r1, #268435456
 493 0024 1164     		str	r1, [r2, #64]
 120:Core/Src/main.c ****   __HAL_PWR_VOLTAGESCALING_CONFIG(PWR_REGULATOR_VOLTAGE_SCALE2);
 494              		.loc 1 120 3 view .LVU141
 495 0026 126C     		ldr	r2, [r2, #64]
 496 0028 02F08052 		and	r2, r2, #268435456
 497 002c 0192     		str	r2, [sp, #4]
 120:Core/Src/main.c ****   __HAL_PWR_VOLTAGESCALING_CONFIG(PWR_REGULATOR_VOLTAGE_SCALE2);
 498              		.loc 1 120 3 view .LVU142
 499 002e 019A     		ldr	r2, [sp, #4]
 500              	.LBE10:
 120:Core/Src/main.c ****   __HAL_PWR_VOLTAGESCALING_CONFIG(PWR_REGULATOR_VOLTAGE_SCALE2);
 501              		.loc 1 120 3 view .LVU143
ARM GAS  C:\Users\natha\AppData\Local\Temp\ccyfa2Ig.s 			page 19


 121:Core/Src/main.c **** 
 502              		.loc 1 121 3 view .LVU144
 503              	.LBB11:
 121:Core/Src/main.c **** 
 504              		.loc 1 121 3 view .LVU145
 505 0030 0293     		str	r3, [sp, #8]
 121:Core/Src/main.c **** 
 506              		.loc 1 121 3 view .LVU146
 507 0032 1B49     		ldr	r1, .L35+4
 508 0034 0A68     		ldr	r2, [r1]
 509 0036 22F44042 		bic	r2, r2, #49152
 510 003a 42F40042 		orr	r2, r2, #32768
 511 003e 0A60     		str	r2, [r1]
 121:Core/Src/main.c **** 
 512              		.loc 1 121 3 view .LVU147
 513 0040 0A68     		ldr	r2, [r1]
 514 0042 02F44042 		and	r2, r2, #49152
 515 0046 0292     		str	r2, [sp, #8]
 121:Core/Src/main.c **** 
 516              		.loc 1 121 3 view .LVU148
 517 0048 029A     		ldr	r2, [sp, #8]
 518              	.LBE11:
 121:Core/Src/main.c **** 
 519              		.loc 1 121 3 view .LVU149
 126:Core/Src/main.c ****   RCC_OscInitStruct.HSIState = RCC_HSI_ON;
 520              		.loc 1 126 3 view .LVU150
 126:Core/Src/main.c ****   RCC_OscInitStruct.HSIState = RCC_HSI_ON;
 521              		.loc 1 126 36 is_stmt 0 view .LVU151
 522 004a 0221     		movs	r1, #2
 523 004c 0891     		str	r1, [sp, #32]
 127:Core/Src/main.c ****   RCC_OscInitStruct.HSICalibrationValue = RCC_HSICALIBRATION_DEFAULT;
 524              		.loc 1 127 3 is_stmt 1 view .LVU152
 127:Core/Src/main.c ****   RCC_OscInitStruct.HSICalibrationValue = RCC_HSICALIBRATION_DEFAULT;
 525              		.loc 1 127 30 is_stmt 0 view .LVU153
 526 004e 0122     		movs	r2, #1
 527 0050 0B92     		str	r2, [sp, #44]
 128:Core/Src/main.c ****   RCC_OscInitStruct.PLL.PLLState = RCC_PLL_ON;
 528              		.loc 1 128 3 is_stmt 1 view .LVU154
 128:Core/Src/main.c ****   RCC_OscInitStruct.PLL.PLLState = RCC_PLL_ON;
 529              		.loc 1 128 41 is_stmt 0 view .LVU155
 530 0052 1022     		movs	r2, #16
 531 0054 0C92     		str	r2, [sp, #48]
 129:Core/Src/main.c ****   RCC_OscInitStruct.PLL.PLLSource = RCC_PLLSOURCE_HSI;
 532              		.loc 1 129 3 is_stmt 1 view .LVU156
 129:Core/Src/main.c ****   RCC_OscInitStruct.PLL.PLLSource = RCC_PLLSOURCE_HSI;
 533              		.loc 1 129 34 is_stmt 0 view .LVU157
 534 0056 0E91     		str	r1, [sp, #56]
 130:Core/Src/main.c ****   RCC_OscInitStruct.PLL.PLLM = 16;
 535              		.loc 1 130 3 is_stmt 1 view .LVU158
 130:Core/Src/main.c ****   RCC_OscInitStruct.PLL.PLLM = 16;
 536              		.loc 1 130 35 is_stmt 0 view .LVU159
 537 0058 0F93     		str	r3, [sp, #60]
 131:Core/Src/main.c ****   RCC_OscInitStruct.PLL.PLLN = 336;
 538              		.loc 1 131 3 is_stmt 1 view .LVU160
 131:Core/Src/main.c ****   RCC_OscInitStruct.PLL.PLLN = 336;
 539              		.loc 1 131 30 is_stmt 0 view .LVU161
 540 005a 1092     		str	r2, [sp, #64]
ARM GAS  C:\Users\natha\AppData\Local\Temp\ccyfa2Ig.s 			page 20


 132:Core/Src/main.c ****   RCC_OscInitStruct.PLL.PLLP = RCC_PLLP_DIV4;
 541              		.loc 1 132 3 is_stmt 1 view .LVU162
 132:Core/Src/main.c ****   RCC_OscInitStruct.PLL.PLLP = RCC_PLLP_DIV4;
 542              		.loc 1 132 30 is_stmt 0 view .LVU163
 543 005c 4FF4A873 		mov	r3, #336
 544 0060 1193     		str	r3, [sp, #68]
 133:Core/Src/main.c ****   RCC_OscInitStruct.PLL.PLLQ = 7;
 545              		.loc 1 133 3 is_stmt 1 view .LVU164
 133:Core/Src/main.c ****   RCC_OscInitStruct.PLL.PLLQ = 7;
 546              		.loc 1 133 30 is_stmt 0 view .LVU165
 547 0062 0423     		movs	r3, #4
 548 0064 1293     		str	r3, [sp, #72]
 134:Core/Src/main.c ****   if (HAL_RCC_OscConfig(&RCC_OscInitStruct) != HAL_OK)
 549              		.loc 1 134 3 is_stmt 1 view .LVU166
 134:Core/Src/main.c ****   if (HAL_RCC_OscConfig(&RCC_OscInitStruct) != HAL_OK)
 550              		.loc 1 134 30 is_stmt 0 view .LVU167
 551 0066 0723     		movs	r3, #7
 552 0068 1393     		str	r3, [sp, #76]
 135:Core/Src/main.c ****   {
 553              		.loc 1 135 3 is_stmt 1 view .LVU168
 135:Core/Src/main.c ****   {
 554              		.loc 1 135 7 is_stmt 0 view .LVU169
 555 006a 08A8     		add	r0, sp, #32
 556 006c FFF7FEFF 		bl	HAL_RCC_OscConfig
 557              	.LVL19:
 135:Core/Src/main.c ****   {
 558              		.loc 1 135 6 view .LVU170
 559 0070 80B9     		cbnz	r0, .L33
 142:Core/Src/main.c ****                               |RCC_CLOCKTYPE_PCLK1|RCC_CLOCKTYPE_PCLK2;
 560              		.loc 1 142 3 is_stmt 1 view .LVU171
 142:Core/Src/main.c ****                               |RCC_CLOCKTYPE_PCLK1|RCC_CLOCKTYPE_PCLK2;
 561              		.loc 1 142 31 is_stmt 0 view .LVU172
 562 0072 0F23     		movs	r3, #15
 563 0074 0393     		str	r3, [sp, #12]
 144:Core/Src/main.c ****   RCC_ClkInitStruct.AHBCLKDivider = RCC_SYSCLK_DIV1;
 564              		.loc 1 144 3 is_stmt 1 view .LVU173
 144:Core/Src/main.c ****   RCC_ClkInitStruct.AHBCLKDivider = RCC_SYSCLK_DIV1;
 565              		.loc 1 144 34 is_stmt 0 view .LVU174
 566 0076 0221     		movs	r1, #2
 567 0078 0491     		str	r1, [sp, #16]
 145:Core/Src/main.c ****   RCC_ClkInitStruct.APB1CLKDivider = RCC_HCLK_DIV2;
 568              		.loc 1 145 3 is_stmt 1 view .LVU175
 145:Core/Src/main.c ****   RCC_ClkInitStruct.APB1CLKDivider = RCC_HCLK_DIV2;
 569              		.loc 1 145 35 is_stmt 0 view .LVU176
 570 007a 0023     		movs	r3, #0
 571 007c 0593     		str	r3, [sp, #20]
 146:Core/Src/main.c ****   RCC_ClkInitStruct.APB2CLKDivider = RCC_HCLK_DIV1;
 572              		.loc 1 146 3 is_stmt 1 view .LVU177
 146:Core/Src/main.c ****   RCC_ClkInitStruct.APB2CLKDivider = RCC_HCLK_DIV1;
 573              		.loc 1 146 36 is_stmt 0 view .LVU178
 574 007e 4FF48052 		mov	r2, #4096
 575 0082 0692     		str	r2, [sp, #24]
 147:Core/Src/main.c **** 
 576              		.loc 1 147 3 is_stmt 1 view .LVU179
 147:Core/Src/main.c **** 
 577              		.loc 1 147 36 is_stmt 0 view .LVU180
 578 0084 0793     		str	r3, [sp, #28]
ARM GAS  C:\Users\natha\AppData\Local\Temp\ccyfa2Ig.s 			page 21


 149:Core/Src/main.c ****   {
 579              		.loc 1 149 3 is_stmt 1 view .LVU181
 149:Core/Src/main.c ****   {
 580              		.loc 1 149 7 is_stmt 0 view .LVU182
 581 0086 03A8     		add	r0, sp, #12
 582 0088 FFF7FEFF 		bl	HAL_RCC_ClockConfig
 583              	.LVL20:
 149:Core/Src/main.c ****   {
 584              		.loc 1 149 6 view .LVU183
 585 008c 20B9     		cbnz	r0, .L34
 153:Core/Src/main.c **** 
 586              		.loc 1 153 1 view .LVU184
 587 008e 15B0     		add	sp, sp, #84
 588              	.LCFI10:
 589              		.cfi_remember_state
 590              		.cfi_def_cfa_offset 4
 591              		@ sp needed
 592 0090 5DF804FB 		ldr	pc, [sp], #4
 593              	.L33:
 594              	.LCFI11:
 595              		.cfi_restore_state
 137:Core/Src/main.c ****   }
 596              		.loc 1 137 5 is_stmt 1 view .LVU185
 597 0094 FFF7FEFF 		bl	Error_Handler
 598              	.LVL21:
 599              	.L34:
 151:Core/Src/main.c ****   }
 600              		.loc 1 151 5 view .LVU186
 601 0098 FFF7FEFF 		bl	Error_Handler
 602              	.LVL22:
 603              	.L36:
 604              		.align	2
 605              	.L35:
 606 009c 00380240 		.word	1073887232
 607 00a0 00700040 		.word	1073770496
 608              		.cfi_endproc
 609              	.LFE131:
 611              		.section	.text.main,"ax",%progbits
 612              		.align	1
 613              		.global	main
 614              		.syntax unified
 615              		.thumb
 616              		.thumb_func
 618              	main:
 619              	.LFB130:
  69:Core/Src/main.c ****   /* USER CODE BEGIN 1 */
 620              		.loc 1 69 1 view -0
 621              		.cfi_startproc
 622              		@ Volatile: function does not return.
 623              		@ args = 0, pretend = 0, frame = 0
 624              		@ frame_needed = 0, uses_anonymous_args = 0
 625 0000 08B5     		push	{r3, lr}
 626              	.LCFI12:
 627              		.cfi_def_cfa_offset 8
 628              		.cfi_offset 3, -8
 629              		.cfi_offset 14, -4
  77:Core/Src/main.c **** 
ARM GAS  C:\Users\natha\AppData\Local\Temp\ccyfa2Ig.s 			page 22


 630              		.loc 1 77 3 view .LVU188
 631 0002 FFF7FEFF 		bl	HAL_Init
 632              	.LVL23:
  84:Core/Src/main.c **** 
 633              		.loc 1 84 3 view .LVU189
 634 0006 FFF7FEFF 		bl	SystemClock_Config
 635              	.LVL24:
  91:Core/Src/main.c ****   MX_USART2_UART_Init();
 636              		.loc 1 91 3 view .LVU190
 637 000a FFF7FEFF 		bl	MX_GPIO_Init
 638              	.LVL25:
  92:Core/Src/main.c ****   MX_TIM3_Init();
 639              		.loc 1 92 3 view .LVU191
 640 000e FFF7FEFF 		bl	MX_USART2_UART_Init
 641              	.LVL26:
  93:Core/Src/main.c ****   /* USER CODE BEGIN 2 */
 642              		.loc 1 93 3 view .LVU192
 643 0012 FFF7FEFF 		bl	MX_TIM3_Init
 644              	.LVL27:
 645              	.L38:
 100:Core/Src/main.c ****   {
 646              		.loc 1 100 3 discriminator 1 view .LVU193
 105:Core/Src/main.c ****   /* USER CODE END 3 */
 647              		.loc 1 105 3 discriminator 1 view .LVU194
 100:Core/Src/main.c ****   {
 648              		.loc 1 100 9 discriminator 1 view .LVU195
 649 0016 FEE7     		b	.L38
 650              		.cfi_endproc
 651              	.LFE130:
 653              		.global	huart2
 654              		.section	.bss.huart2,"aw",%nobits
 655              		.align	2
 658              	huart2:
 659 0000 00000000 		.space	68
 659      00000000 
 659      00000000 
 659      00000000 
 659      00000000 
 660              		.global	htim3
 661              		.section	.bss.htim3,"aw",%nobits
 662              		.align	2
 665              	htim3:
 666 0000 00000000 		.space	72
 666      00000000 
 666      00000000 
 666      00000000 
 666      00000000 
 667              		.text
 668              	.Letext0:
 669              		.file 3 "c:\\users\\natha\\devtools\\arm-gnu-toolchain-12.2.mpacbti-bet1-mingw-w64-i686-arm-none-e
 670              		.file 4 "c:\\users\\natha\\devtools\\arm-gnu-toolchain-12.2.mpacbti-bet1-mingw-w64-i686-arm-none-e
 671              		.file 5 "Drivers/CMSIS/Device/ST/STM32F4xx/Include/stm32f401xe.h"
 672              		.file 6 "Drivers/STM32F4xx_HAL_Driver/Inc/stm32f4xx_hal_def.h"
 673              		.file 7 "Drivers/STM32F4xx_HAL_Driver/Inc/stm32f4xx_hal_rcc_ex.h"
 674              		.file 8 "Drivers/STM32F4xx_HAL_Driver/Inc/stm32f4xx_hal_rcc.h"
 675              		.file 9 "Drivers/STM32F4xx_HAL_Driver/Inc/stm32f4xx_hal_gpio.h"
 676              		.file 10 "Drivers/STM32F4xx_HAL_Driver/Inc/stm32f4xx_hal_dma.h"
ARM GAS  C:\Users\natha\AppData\Local\Temp\ccyfa2Ig.s 			page 23


 677              		.file 11 "Drivers/STM32F4xx_HAL_Driver/Inc/stm32f4xx_hal_tim.h"
 678              		.file 12 "Drivers/STM32F4xx_HAL_Driver/Inc/stm32f4xx_hal_uart.h"
 679              		.file 13 "Drivers/STM32F4xx_HAL_Driver/Inc/stm32f4xx_hal_tim_ex.h"
 680              		.file 14 "Core/Inc/main.h"
 681              		.file 15 "Drivers/STM32F4xx_HAL_Driver/Inc/stm32f4xx_hal.h"
 682              		.file 16 "<built-in>"
ARM GAS  C:\Users\natha\AppData\Local\Temp\ccyfa2Ig.s 			page 24

